; ModuleID = 'source-C-CXX/53/1274.cpp'
source_filename = "source-C-CXX/53/1274.cpp"
target datalayout = "e-m:e-p270:32:32-p271:32:32-p272:64:64-i64:64-f80:128-n8:16:32:64-S128"
target triple = "x86_64-pc-linux-gnu"

%"class.std::ios_base::Init" = type { i8 }
%"class.std::basic_istream" = type { i32 (...)**, i64, %"class.std::basic_ios" }
%"class.std::basic_ios" = type { %"class.std::ios_base", %"class.std::basic_ostream"*, i8, i8, %"class.std::basic_streambuf"*, %"class.std::ctype"*, %"class.std::num_put"*, %"class.std::num_get"* }
%"class.std::ios_base" = type { i32 (...)**, i64, i64, i32, i32, i32, %"struct.std::ios_base::_Callback_list"*, %"struct.std::ios_base::_Words", [8 x %"struct.std::ios_base::_Words"], i32, %"struct.std::ios_base::_Words"*, %"class.std::locale" }
%"struct.std::ios_base::_Callback_list" = type { %"struct.std::ios_base::_Callback_list"*, void (i32, %"class.std::ios_base"*, i32)*, i32, i32 }
%"struct.std::ios_base::_Words" = type { i8*, i64 }
%"class.std::locale" = type { %"class.std::locale::_Impl"* }
%"class.std::locale::_Impl" = type { i32, %"class.std::locale::facet"**, i64, %"class.std::locale::facet"**, i8** }
%"class.std::locale::facet" = type <{ i32 (...)**, i32, [4 x i8] }>
%"class.std::basic_ostream" = type { i32 (...)**, %"class.std::basic_ios" }
%"class.std::basic_streambuf" = type { i32 (...)**, i8*, i8*, i8*, i8*, i8*, i8*, %"class.std::locale" }
%"class.std::ctype" = type <{ %"class.std::locale::facet.base", [4 x i8], %struct.__locale_struct*, i8, [7 x i8], i32*, i32*, i16*, i8, [256 x i8], [256 x i8], i8, [6 x i8] }>
%"class.std::locale::facet.base" = type <{ i32 (...)**, i32 }>
%struct.__locale_struct = type { [13 x %struct.__locale_data*], i16*, i32*, i32*, [13 x i8*] }
%struct.__locale_data = type opaque
%"class.std::num_put" = type { %"class.std::locale::facet.base", [4 x i8] }
%"class.std::num_get" = type { %"class.std::locale::facet.base", [4 x i8] }

@_ZStL8__ioinit = internal global %"class.std::ios_base::Init" zeroinitializer, align 1
@__dso_handle = external hidden global i8
@_ZSt3cin = external global %"class.std::basic_istream", align 8
@_ZSt4cout = external global %"class.std::basic_ostream", align 8
@llvm.global_ctors = appending global [1 x { i32, void ()*, i8* }] [{ i32, void ()*, i8* } { i32 65535, void ()* @_GLOBAL__sub_I_1274.cpp, i8* null }]

declare void @_ZNSt8ios_base4InitC1Ev(%"class.std::ios_base::Init"* nonnull align 1 dereferenceable(1)) unnamed_addr #0

; Function Attrs: nounwind
declare void @_ZNSt8ios_base4InitD1Ev(%"class.std::ios_base::Init"* nonnull align 1 dereferenceable(1)) unnamed_addr #1

; Function Attrs: nofree nounwind
declare i32 @__cxa_atexit(void (i8*)*, i8*, i8*) local_unnamed_addr #2

; Function Attrs: mustprogress sspstrong uwtable
define dso_local i32 @_Z4workv() local_unnamed_addr #3 {
  %1 = alloca i32, align 4
  %2 = alloca i32, align 4
  %3 = alloca [100 x i32], align 16
  %4 = bitcast [100 x i32]* %3 to i8*
  %5 = bitcast i32* %1 to i8*
  call void @llvm.lifetime.start.p0i8(i64 4, i8* nonnull %5) #9
  %6 = bitcast i32* %2 to i8*
  call void @llvm.lifetime.start.p0i8(i64 4, i8* nonnull %6) #9
  call void @llvm.lifetime.start.p0i8(i64 400, i8* nonnull %4) #9
  call void @llvm.memset.p0i8.i64(i8* noundef nonnull align 16 dereferenceable(400) %4, i8 0, i64 400, i1 false)
  %7 = call nonnull align 8 dereferenceable(16) %"class.std::basic_istream"* @_ZNSirsERi(%"class.std::basic_istream"* nonnull align 8 dereferenceable(16) @_ZSt3cin, i32* nonnull align 4 dereferenceable(4) %1)
  %8 = call nonnull align 8 dereferenceable(16) %"class.std::basic_istream"* @_ZNSirsERi(%"class.std::basic_istream"* nonnull align 8 dereferenceable(16) %7, i32* nonnull align 4 dereferenceable(4) %2)
  %9 = load i32, i32* %2, align 4, !tbaa !5
  %10 = getelementptr inbounds [100 x i32], [100 x i32]* %3, i64 0, i64 0
  %11 = load i32, i32* %1, align 4, !tbaa !5
  %12 = add nsw i32 %11, -1
  %13 = icmp sgt i32 %11, 1
  %14 = sext i32 %12 to i64
  %15 = getelementptr inbounds [100 x i32], [100 x i32]* %3, i64 0, i64 %14
  br i1 %13, label %16, label %37

16:                                               ; preds = %0
  %17 = zext i32 %11 to i64
  br label %18

18:                                               ; preds = %16, %33
  %19 = phi i32 [ %9, %16 ], [ %20, %33 ]
  %20 = add nsw i32 %11, %19
  store i32 %20, i32* %10, align 16, !tbaa !5
  br label %21

21:                                               ; preds = %21, %18
  %22 = phi i32 [ %26, %21 ], [ %20, %18 ]
  %23 = phi i64 [ %30, %21 ], [ 1, %18 ]
  %24 = mul nsw i32 %22, %11
  %25 = sdiv i32 %24, %12
  %26 = add nsw i32 %25, %9
  %27 = getelementptr inbounds [100 x i32], [100 x i32]* %3, i64 0, i64 %23
  store i32 %26, i32* %27, align 4, !tbaa !5
  %28 = srem i32 %26, %11
  %29 = icmp eq i32 %28, %9
  %30 = add nuw nsw i64 %23, 1
  %31 = icmp ult i64 %30, %17
  %32 = select i1 %29, i1 %31, i1 false
  br i1 %32, label %21, label %33, !llvm.loop !9

33:                                               ; preds = %21
  %34 = load i32, i32* %15, align 4, !tbaa !5
  %35 = srem i32 %34, %11
  %36 = icmp eq i32 %35, %9
  br i1 %36, label %43, label %18, !llvm.loop !11

37:                                               ; preds = %0, %37
  %38 = phi i32 [ %39, %37 ], [ %9, %0 ]
  %39 = add nsw i32 %11, %38
  store i32 %39, i32* %10, align 16, !tbaa !5
  %40 = load i32, i32* %15, align 4, !tbaa !5
  %41 = srem i32 %40, %11
  %42 = icmp eq i32 %41, %9
  br i1 %42, label %43, label %37, !llvm.loop !11

43:                                               ; preds = %37, %33
  %44 = phi i32 [ %34, %33 ], [ %40, %37 ]
  %45 = call nonnull align 8 dereferenceable(8) %"class.std::basic_ostream"* @_ZNSolsEi(%"class.std::basic_ostream"* nonnull align 8 dereferenceable(8) @_ZSt4cout, i32 %44)
  %46 = bitcast %"class.std::basic_ostream"* %45 to i8**
  %47 = load i8*, i8** %46, align 8, !tbaa !12
  %48 = getelementptr i8, i8* %47, i64 -24
  %49 = bitcast i8* %48 to i64*
  %50 = load i64, i64* %49, align 8
  %51 = bitcast %"class.std::basic_ostream"* %45 to i8*
  %52 = add nsw i64 %50, 240
  %53 = getelementptr inbounds i8, i8* %51, i64 %52
  %54 = bitcast i8* %53 to %"class.std::ctype"**
  %55 = load %"class.std::ctype"*, %"class.std::ctype"** %54, align 8, !tbaa !14
  %56 = icmp eq %"class.std::ctype"* %55, null
  br i1 %56, label %57, label %58

57:                                               ; preds = %43
  call void @_ZSt16__throw_bad_castv() #10
  unreachable

58:                                               ; preds = %43
  %59 = getelementptr inbounds %"class.std::ctype", %"class.std::ctype"* %55, i64 0, i32 8
  %60 = load i8, i8* %59, align 8, !tbaa !18
  %61 = icmp eq i8 %60, 0
  br i1 %61, label %65, label %62

62:                                               ; preds = %58
  %63 = getelementptr inbounds %"class.std::ctype", %"class.std::ctype"* %55, i64 0, i32 9, i64 10
  %64 = load i8, i8* %63, align 1, !tbaa !20
  br label %71

65:                                               ; preds = %58
  call void @_ZNKSt5ctypeIcE13_M_widen_initEv(%"class.std::ctype"* nonnull align 8 dereferenceable(570) %55)
  %66 = bitcast %"class.std::ctype"* %55 to i8 (%"class.std::ctype"*, i8)***
  %67 = load i8 (%"class.std::ctype"*, i8)**, i8 (%"class.std::ctype"*, i8)*** %66, align 8, !tbaa !12
  %68 = getelementptr inbounds i8 (%"class.std::ctype"*, i8)*, i8 (%"class.std::ctype"*, i8)** %67, i64 6
  %69 = load i8 (%"class.std::ctype"*, i8)*, i8 (%"class.std::ctype"*, i8)** %68, align 8
  %70 = call signext i8 %69(%"class.std::ctype"* nonnull align 8 dereferenceable(570) %55, i8 signext 10)
  br label %71

71:                                               ; preds = %62, %65
  %72 = phi i8 [ %64, %62 ], [ %70, %65 ]
  %73 = call nonnull align 8 dereferenceable(8) %"class.std::basic_ostream"* @_ZNSo3putEc(%"class.std::basic_ostream"* nonnull align 8 dereferenceable(8) %45, i8 signext %72)
  %74 = call nonnull align 8 dereferenceable(8) %"class.std::basic_ostream"* @_ZNSo5flushEv(%"class.std::basic_ostream"* nonnull align 8 dereferenceable(8) %73)
  call void @llvm.lifetime.end.p0i8(i64 400, i8* nonnull %4) #9
  call void @llvm.lifetime.end.p0i8(i64 4, i8* nonnull %6) #9
  call void @llvm.lifetime.end.p0i8(i64 4, i8* nonnull %5) #9
  ret i32 0
}

; Function Attrs: argmemonly mustprogress nofree nosync nounwind willreturn
declare void @llvm.lifetime.start.p0i8(i64 immarg, i8* nocapture) #4

declare nonnull align 8 dereferenceable(16) %"class.std::basic_istream"* @_ZNSirsERi(%"class.std::basic_istream"* nonnull align 8 dereferenceable(16), i32* nonnull align 4 dereferenceable(4)) local_unnamed_addr #0

declare nonnull align 8 dereferenceable(8) %"class.std::basic_ostream"* @_ZNSolsEi(%"class.std::basic_ostream"* nonnull align 8 dereferenceable(8), i32) local_unnamed_addr #0

; Function Attrs: argmemonly mustprogress nofree nosync nounwind willreturn
declare void @llvm.lifetime.end.p0i8(i64 immarg, i8* nocapture) #4

; Function Attrs: mustprogress norecurse sspstrong uwtable
define dso_local i32 @main() local_unnamed_addr #5 {
  %1 = tail call i32 @_Z4workv()
  ret i32 0
}

declare nonnull align 8 dereferenceable(8) %"class.std::basic_ostream"* @_ZNSo3putEc(%"class.std::basic_ostream"* nonnull align 8 dereferenceable(8), i8 signext) local_unnamed_addr #0

declare nonnull align 8 dereferenceable(8) %"class.std::basic_ostream"* @_ZNSo5flushEv(%"class.std::basic_ostream"* nonnull align 8 dereferenceable(8)) local_unnamed_addr #0

; Function Attrs: noreturn
declare void @_ZSt16__throw_bad_castv() local_unnamed_addr #6

declare void @_ZNKSt5ctypeIcE13_M_widen_initEv(%"class.std::ctype"* nonnull align 8 dereferenceable(570)) local_unnamed_addr #0

; Function Attrs: sspstrong uwtable
define internal void @_GLOBAL__sub_I_1274.cpp() #7 section ".text.startup" {
  tail call void @_ZNSt8ios_base4InitC1Ev(%"class.std::ios_base::Init"* nonnull align 1 dereferenceable(1) @_ZStL8__ioinit)
  %1 = tail call i32 @__cxa_atexit(void (i8*)* bitcast (void (%"class.std::ios_base::Init"*)* @_ZNSt8ios_base4InitD1Ev to void (i8*)*), i8* getelementptr inbounds (%"class.std::ios_base::Init", %"class.std::ios_base::Init"* @_ZStL8__ioinit, i64 0, i32 0), i8* nonnull @__dso_handle) #9
  ret void
}

; Function Attrs: argmemonly nofree nounwind willreturn writeonly
declare void @llvm.memset.p0i8.i64(i8* nocapture writeonly, i8, i64, i1 immarg) #8


!llvm.module.flags = !{!0, !1, !2, !3}
!llvm.ident = !{!4}

!0 = !{i32 1, !"wchar_size", i32 4}
!1 = !{i32 7, !"PIC Level", i32 2}
!2 = !{i32 7, !"PIE Level", i32 2}
!3 = !{i32 7, !"uwtable", i32 1}
!4 = !{!"clang version 13.0.0"}
!5 = !{!6, !6, i64 0}
!6 = !{!"int", !7, i64 0}
!7 = !{!"omnipotent char", !8, i64 0}
!8 = !{!"Simple C++ TBAA"}
!9 = distinct !{!9, !10}
!10 = !{!"llvm.loop.mustprogress"}
!11 = distinct !{!11, !10}
!12 = !{!13, !13, i64 0}
!13 = !{!"vtable pointer", !8, i64 0}
!14 = !{!15, !16, i64 240}
!15 = !{!"_ZTSSt9basic_iosIcSt11char_traitsIcEE", !16, i64 216, !7, i64 224, !17, i64 225, !16, i64 232, !16, i64 240, !16, i64 248, !16, i64 256}
!16 = !{!"any pointer", !7, i64 0}
!17 = !{!"bool", !7, i64 0}
!18 = !{!19, !7, i64 56}
!19 = !{!"_ZTSSt5ctypeIcE", !16, i64 16, !17, i64 24, !16, i64 32, !16, i64 40, !16, i64 48, !7, i64 56, !7, i64 57, !7, i64 313, !7, i64 569}
!20 = !{!7, !7, i64 0}
